target datalayout = "e-m:e-p270:32:32-p271:32:32-p272:64:64-i64:64-i128:128-f80:128-n8:16:32:64-S128"
target triple = "x86_64-pc-linux-gnu"

; Function Attrs: nounwind uwtable
define hidden void @KeccakP1600_ExtractBytesInLane(ptr noundef %0, i32 noundef %1, ptr noundef %2, i32 noundef %3, i32 noundef %4) #0 {
  %6 = alloca ptr, align 8
  %7 = alloca i32, align 4
  %8 = alloca ptr, align 8
  %9 = alloca i32, align 4
  %10 = alloca i32, align 4
  %11 = alloca i64, align 8
  %12 = alloca [1 x i64], align 8
  store ptr %0, ptr %6, align 8, !tbaa !4
  store i32 %1, ptr %7, align 4, !tbaa !10
  store ptr %2, ptr %8, align 8, !tbaa !12
  store i32 %3, ptr %9, align 4, !tbaa !10
  store i32 %4, ptr %10, align 4, !tbaa !10
  call void @llvm.lifetime.start.p0(i64 8, ptr %11) #4
  %13 = load ptr, ptr %6, align 8, !tbaa !4
  %14 = load i32, ptr %7, align 4, !tbaa !10
  %15 = zext i32 %14 to i64
  %16 = getelementptr inbounds nuw i64, ptr %13, i64 %15
  %17 = load i64, ptr %16, align 8, !tbaa !8
  store i64 %17, ptr %11, align 8, !tbaa !8
  %18 = load i32, ptr %7, align 4, !tbaa !10
  %19 = icmp eq i32 %18, 1
  br i1 %19, label %35, label %20

20:                                               ; preds = %5
  %21 = load i32, ptr %7, align 4, !tbaa !10
  %22 = icmp eq i32 %21, 2
  br i1 %22, label %35, label %23

23:                                               ; preds = %20
  %24 = load i32, ptr %7, align 4, !tbaa !10
  %25 = icmp eq i32 %24, 8
  br i1 %25, label %35, label %26

26:                                               ; preds = %23
  %27 = load i32, ptr %7, align 4, !tbaa !10
  %28 = icmp eq i32 %27, 12
  br i1 %28, label %35, label %29

29:                                               ; preds = %26
  %30 = load i32, ptr %7, align 4, !tbaa !10
  %31 = icmp eq i32 %30, 17
  br i1 %31, label %35, label %32

32:                                               ; preds = %29
  %33 = load i32, ptr %7, align 4, !tbaa !10
  %34 = icmp eq i32 %33, 20
  br i1 %34, label %35, label %38

35:                                               ; preds = %32, %29, %26, %23, %20, %5
  %36 = load i64, ptr %11, align 8, !tbaa !8
  %37 = xor i64 %36, -1
  store i64 %37, ptr %11, align 8, !tbaa !8
  br label %38

38:                                               ; preds = %35, %32
  call void @llvm.lifetime.start.p0(i64 8, ptr %12) #4
  %39 = load i64, ptr %11, align 8, !tbaa !8
  %40 = getelementptr inbounds [1 x i64], ptr %12, i64 0, i64 0
  store i64 %39, ptr %40, align 8, !tbaa !8
  %41 = load ptr, ptr %8, align 8, !tbaa !12
  %42 = getelementptr inbounds [1 x i64], ptr %12, i64 0, i64 0
  %43 = load i32, ptr %9, align 4, !tbaa !10
  %44 = zext i32 %43 to i64
  %45 = getelementptr inbounds nuw i8, ptr %42, i64 %44
  %46 = load i32, ptr %10, align 4, !tbaa !10
  %47 = zext i32 %46 to i64
  call void @llvm.memcpy.p0.p0.i64(ptr align 1 %41, ptr align 1 %45, i64 %47, i1 false)
  call void @llvm.lifetime.end.p0(i64 8, ptr %12) #4
  call void @llvm.lifetime.end.p0(i64 8, ptr %11) #4
  ret void
}

; Function Attrs: nounwind uwtable
define hidden void @KeccakP1600_ExtractLanes(ptr noundef %0, ptr noundef %1, i32 noundef %2) #0 {
  %4 = alloca ptr, align 8
  %5 = alloca ptr, align 8
  %6 = alloca i32, align 4
  store ptr %0, ptr %4, align 8, !tbaa !4
  store ptr %1, ptr %5, align 8, !tbaa !12
  store i32 %2, ptr %6, align 4, !tbaa !10
  %7 = load ptr, ptr %5, align 8, !tbaa !12
  %8 = load ptr, ptr %4, align 8, !tbaa !4
  %9 = load i32, ptr %6, align 4, !tbaa !10
  %10 = mul i32 %9, 8
  %11 = zext i32 %10 to i64
  call void @llvm.memcpy.p0.p0.i64(ptr align 1 %7, ptr align 1 %8, i64 %11, i1 false)
  %12 = load i32, ptr %6, align 4, !tbaa !10
  %13 = icmp ugt i32 %12, 1
  br i1 %13, label %14, label %71

14:                                               ; preds = %3
  %15 = load ptr, ptr %5, align 8, !tbaa !12
  %16 = getelementptr inbounds i64, ptr %15, i64 1
  %17 = load i64, ptr %16, align 8, !tbaa !8
  %18 = xor i64 %17, -1
  %19 = load ptr, ptr %5, align 8, !tbaa !12
  %20 = getelementptr inbounds i64, ptr %19, i64 1
  store i64 %18, ptr %20, align 8, !tbaa !8
  %21 = load i32, ptr %6, align 4, !tbaa !10
  %22 = icmp ugt i32 %21, 2
  br i1 %22, label %23, label %70

23:                                               ; preds = %14
  %24 = load ptr, ptr %5, align 8, !tbaa !12
  %25 = getelementptr inbounds i64, ptr %24, i64 2
  %26 = load i64, ptr %25, align 8, !tbaa !8
  %27 = xor i64 %26, -1
  %28 = load ptr, ptr %5, align 8, !tbaa !12
  %29 = getelementptr inbounds i64, ptr %28, i64 2
  store i64 %27, ptr %29, align 8, !tbaa !8
  %30 = load i32, ptr %6, align 4, !tbaa !10
  %31 = icmp ugt i32 %30, 8
  br i1 %31, label %32, label %69

32:                                               ; preds = %23
  %33 = load ptr, ptr %5, align 8, !tbaa !12
  %34 = getelementptr inbounds i64, ptr %33, i64 8
  %35 = load i64, ptr %34, align 8, !tbaa !8
  %36 = xor i64 %35, -1
  %37 = load ptr, ptr %5, align 8, !tbaa !12
  %38 = getelementptr inbounds i64, ptr %37, i64 8
  store i64 %36, ptr %38, align 8, !tbaa !8
  %39 = load i32, ptr %6, align 4, !tbaa !10
  %40 = icmp ugt i32 %39, 12
  br i1 %40, label %41, label %68

41:                                               ; preds = %32
  %42 = load ptr, ptr %5, align 8, !tbaa !12
  %43 = getelementptr inbounds i64, ptr %42, i64 12
  %44 = load i64, ptr %43, align 8, !tbaa !8
  %45 = xor i64 %44, -1
  %46 = load ptr, ptr %5, align 8, !tbaa !12
  %47 = getelementptr inbounds i64, ptr %46, i64 12
  store i64 %45, ptr %47, align 8, !tbaa !8
  %48 = load i32, ptr %6, align 4, !tbaa !10
  %49 = icmp ugt i32 %48, 17
  br i1 %49, label %50, label %67

50:                                               ; preds = %41
  %51 = load ptr, ptr %5, align 8, !tbaa !12
  %52 = getelementptr inbounds i64, ptr %51, i64 17
  %53 = load i64, ptr %52, align 8, !tbaa !8
  %54 = xor i64 %53, -1
  %55 = load ptr, ptr %5, align 8, !tbaa !12
  %56 = getelementptr inbounds i64, ptr %55, i64 17
  store i64 %54, ptr %56, align 8, !tbaa !8
  %57 = load i32, ptr %6, align 4, !tbaa !10
  %58 = icmp ugt i32 %57, 20
  br i1 %58, label %59, label %66

59:                                               ; preds = %50
  %60 = load ptr, ptr %5, align 8, !tbaa !12
  %61 = getelementptr inbounds i64, ptr %60, i64 20
  %62 = load i64, ptr %61, align 8, !tbaa !8
  %63 = xor i64 %62, -1
  %64 = load ptr, ptr %5, align 8, !tbaa !12
  %65 = getelementptr inbounds i64, ptr %64, i64 20
  store i64 %63, ptr %65, align 8, !tbaa !8
  br label %66

66:                                               ; preds = %59, %50
  br label %67

67:                                               ; preds = %66, %41
  br label %68

68:                                               ; preds = %67, %32
  br label %69

69:                                               ; preds = %68, %23
  br label %70

70:                                               ; preds = %69, %14
  br label %71

71:                                               ; preds = %70, %3
  ret void
}

; Function Attrs: nounwind uwtable
define hidden void @KeccakP1600_ExtractBytes(ptr noundef %0, ptr noundef %1, i32 noundef %2, i32 noundef %3) #0 {
  %5 = alloca ptr, align 8
  %6 = alloca ptr, align 8
  %7 = alloca i32, align 4
  %8 = alloca i32, align 4
  %9 = alloca i32, align 4
  %10 = alloca i32, align 4
  %11 = alloca i32, align 4
  %12 = alloca ptr, align 8
  %13 = alloca i32, align 4
  store ptr %0, ptr %5, align 8, !tbaa !4
  store ptr %1, ptr %6, align 8, !tbaa !12
  store i32 %2, ptr %7, align 4, !tbaa !10
  store i32 %3, ptr %8, align 4, !tbaa !10
  %14 = load i32, ptr %7, align 4, !tbaa !10
  %15 = icmp eq i32 %14, 0
  br i1 %15, label %16, label %32

16:                                               ; preds = %4
  %17 = load ptr, ptr %5, align 8, !tbaa !4
  %18 = load ptr, ptr %6, align 8, !tbaa !12
  %19 = load i32, ptr %8, align 4, !tbaa !10
  %20 = udiv i32 %19, 8
  call void @KeccakP1600_ExtractLanes(ptr noundef %17, ptr noundef %18, i32 noundef %20)
  %21 = load ptr, ptr %5, align 8, !tbaa !4
  %22 = load i32, ptr %8, align 4, !tbaa !10
  %23 = udiv i32 %22, 8
  %24 = load ptr, ptr %6, align 8, !tbaa !12
  %25 = load i32, ptr %8, align 4, !tbaa !10
  %26 = udiv i32 %25, 8
  %27 = mul i32 %26, 8
  %28 = zext i32 %27 to i64
  %29 = getelementptr inbounds nuw i8, ptr %24, i64 %28
  %30 = load i32, ptr %8, align 4, !tbaa !10
  %31 = urem i32 %30, 8
  call void @KeccakP1600_ExtractBytesInLane(ptr noundef %21, i32 noundef %23, ptr noundef %29, i32 noundef 0, i32 noundef %31)
  br label %66

32:                                               ; preds = %4
  call void @llvm.lifetime.start.p0(i64 4, ptr %9) #4
  %33 = load i32, ptr %8, align 4, !tbaa !10
  store i32 %33, ptr %9, align 4, !tbaa !10
  call void @llvm.lifetime.start.p0(i64 4, ptr %10) #4
  %34 = load i32, ptr %7, align 4, !tbaa !10
  %35 = udiv i32 %34, 8
  store i32 %35, ptr %10, align 4, !tbaa !10
  call void @llvm.lifetime.start.p0(i64 4, ptr %11) #4
  %36 = load i32, ptr %7, align 4, !tbaa !10
  %37 = urem i32 %36, 8
  store i32 %37, ptr %11, align 4, !tbaa !10
  call void @llvm.lifetime.start.p0(i64 8, ptr %12) #4
  %38 = load ptr, ptr %6, align 8, !tbaa !12
  store ptr %38, ptr %12, align 8, !tbaa !12
  br label %39

39:                                               ; preds = %50, %32
  %40 = load i32, ptr %9, align 4, !tbaa !10
  %41 = icmp ugt i32 %40, 0
  br i1 %41, label %42, label %65

42:                                               ; preds = %39
  call void @llvm.lifetime.start.p0(i64 4, ptr %13) #4
  %43 = load i32, ptr %11, align 4, !tbaa !10
  %44 = sub i32 8, %43
  store i32 %44, ptr %13, align 4, !tbaa !10
  %45 = load i32, ptr %13, align 4, !tbaa !10
  %46 = load i32, ptr %9, align 4, !tbaa !10
  %47 = icmp ugt i32 %45, %46
  br i1 %47, label %48, label %50

48:                                               ; preds = %42
  %49 = load i32, ptr %9, align 4, !tbaa !10
  store i32 %49, ptr %13, align 4, !tbaa !10
  br label %50

50:                                               ; preds = %48, %42
  %51 = load ptr, ptr %5, align 8, !tbaa !4
  %52 = load i32, ptr %10, align 4, !tbaa !10
  %53 = load ptr, ptr %12, align 8, !tbaa !12
  %54 = load i32, ptr %11, align 4, !tbaa !10
  %55 = load i32, ptr %13, align 4, !tbaa !10
  call void @KeccakP1600_ExtractBytesInLane(ptr noundef %51, i32 noundef %52, ptr noundef %53, i32 noundef %54, i32 noundef %55)
  %56 = load i32, ptr %13, align 4, !tbaa !10
  %57 = load i32, ptr %9, align 4, !tbaa !10
  %58 = sub i32 %57, %56
  store i32 %58, ptr %9, align 4, !tbaa !10
  %59 = load i32, ptr %10, align 4, !tbaa !10
  %60 = add i32 %59, 1
  store i32 %60, ptr %10, align 4, !tbaa !10
  store i32 0, ptr %11, align 4, !tbaa !10
  %61 = load i32, ptr %13, align 4, !tbaa !10
  %62 = load ptr, ptr %12, align 8, !tbaa !12
  %63 = zext i32 %61 to i64
  %64 = getelementptr inbounds nuw i8, ptr %62, i64 %63
  store ptr %64, ptr %12, align 8, !tbaa !12
  call void @llvm.lifetime.end.p0(i64 4, ptr %13) #4
  br label %39

65:                                               ; preds = %39
  call void @llvm.lifetime.end.p0(i64 8, ptr %12) #4
  call void @llvm.lifetime.end.p0(i64 4, ptr %11) #4
  call void @llvm.lifetime.end.p0(i64 4, ptr %10) #4
  call void @llvm.lifetime.end.p0(i64 4, ptr %9) #4
  br label %66

66:                                               ; preds = %65, %16
  ret void
}