; Function Attrs: nofree norecurse nosync nounwind memory(argmem: readwrite) uwtable
define hidden void @KeccakP1600_ExtractBytes(ptr noundef readonly captures(none) %0, ptr noundef captures(none) %1, i32 noundef %2, i32 noundef %3) local_unnamed_addr #5 {
  %5 = alloca [1 x i64], align 8
  %.sroa.0 = alloca i64, align 8
  %6 = icmp eq i32 %2, 0
  br i1 %6, label %7, label %56

7:                                                ; preds = %4
  %8 = lshr i32 %3, 3
  %9 = and i32 %3, -8
  %10 = zext i32 %9 to i64
  tail call void @llvm.memcpy.p0.p0.i64(ptr align 1 %1, ptr readonly align 1 %0, i64 %10, i1 false)
  %11 = icmp ugt i32 %3, 15
  br i1 %11, label %12, label %KeccakP1600_ExtractLanes.exit

12:                                               ; preds = %7
  %13 = getelementptr inbounds nuw i8, ptr %1, i64 8
  %14 = load i64, ptr %13, align 8, !tbaa !4
  %15 = xor i64 %14, -1
  store i64 %15, ptr %13, align 8, !tbaa !4
  %.not.i = icmp eq i32 %8, 2
  %16 = getelementptr inbounds nuw i8, ptr %1, i64 16
  br i1 %.not.i, label %KeccakP1600_ExtractLanes.exit.thread, label %20

KeccakP1600_ExtractLanes.exit.thread:             ; preds = %12
  %17 = and i32 %3, 7
  %18 = getelementptr inbounds nuw i8, ptr %0, i64 16
  %19 = load i64, ptr %18, align 8, !tbaa !4
  br label %48

20:                                               ; preds = %12
  %21 = load i64, ptr %16, align 8, !tbaa !4
  %22 = xor i64 %21, -1
  store i64 %22, ptr %16, align 8, !tbaa !4
  %23 = icmp ugt i32 %3, 71
  br i1 %23, label %24, label %KeccakP1600_ExtractLanes.exit

24:                                               ; preds = %20
  %25 = getelementptr inbounds nuw i8, ptr %1, i64 64
  %26 = load i64, ptr %25, align 8, !tbaa !4
  %27 = xor i64 %26, -1
  store i64 %27, ptr %25, align 8, !tbaa !4
  %28 = icmp ugt i32 %3, 103
  br i1 %28, label %29, label %KeccakP1600_ExtractLanes.exit

29:                                               ; preds = %24
  %30 = getelementptr inbounds nuw i8, ptr %1, i64 96
  %31 = load i64, ptr %30, align 8, !tbaa !4
  %32 = xor i64 %31, -1
  store i64 %32, ptr %30, align 8, !tbaa !4
  %33 = icmp ugt i32 %3, 143
  br i1 %33, label %34, label %KeccakP1600_ExtractLanes.exit

34:                                               ; preds = %29
  %35 = getelementptr inbounds nuw i8, ptr %1, i64 136
  %36 = load i64, ptr %35, align 8, !tbaa !4
  %37 = xor i64 %36, -1
  store i64 %37, ptr %35, align 8, !tbaa !4
  %38 = icmp ugt i32 %3, 167
  br i1 %38, label %39, label %KeccakP1600_ExtractLanes.exit

39:                                               ; preds = %34
  %40 = getelementptr inbounds nuw i8, ptr %1, i64 160
  %41 = load i64, ptr %40, align 8, !tbaa !4
  %42 = xor i64 %41, -1
  store i64 %42, ptr %40, align 8, !tbaa !4
  br label %KeccakP1600_ExtractLanes.exit

KeccakP1600_ExtractLanes.exit:                    ; preds = %7, %20, %24, %29, %34, %39
  %43 = getelementptr inbounds nuw i8, ptr %1, i64 %10
  %44 = and i32 %3, 7
  %45 = zext nneg i32 %8 to i64
  %46 = getelementptr inbounds nuw i64, ptr %0, i64 %45
  %47 = load i64, ptr %46, align 8, !tbaa !4
  switch i32 %8, label %KeccakP1600_ExtractBytesInLane.exit [
    i32 20, label %48
    i32 17, label %48
    i32 12, label %48
    i32 8, label %48
    i32 1, label %48
  ]

48:                                               ; preds = %KeccakP1600_ExtractLanes.exit, %KeccakP1600_ExtractLanes.exit.thread, %KeccakP1600_ExtractLanes.exit, %KeccakP1600_ExtractLanes.exit, %KeccakP1600_ExtractLanes.exit, %KeccakP1600_ExtractLanes.exit
  %49 = phi i64 [ %19, %KeccakP1600_ExtractLanes.exit.thread ], [ %47, %KeccakP1600_ExtractLanes.exit ], [ %47, %KeccakP1600_ExtractLanes.exit ], [ %47, %KeccakP1600_ExtractLanes.exit ], [ %47, %KeccakP1600_ExtractLanes.exit ], [ %47, %KeccakP1600_ExtractLanes.exit ]
  %50 = phi i32 [ %17, %KeccakP1600_ExtractLanes.exit.thread ], [ %44, %KeccakP1600_ExtractLanes.exit ], [ %44, %KeccakP1600_ExtractLanes.exit ], [ %44, %KeccakP1600_ExtractLanes.exit ], [ %44, %KeccakP1600_ExtractLanes.exit ], [ %44, %KeccakP1600_ExtractLanes.exit ]
  %51 = phi ptr [ %16, %KeccakP1600_ExtractLanes.exit.thread ], [ %43, %KeccakP1600_ExtractLanes.exit ], [ %43, %KeccakP1600_ExtractLanes.exit ], [ %43, %KeccakP1600_ExtractLanes.exit ], [ %43, %KeccakP1600_ExtractLanes.exit ], [ %43, %KeccakP1600_ExtractLanes.exit ]
  %52 = xor i64 %49, -1
  br label %KeccakP1600_ExtractBytesInLane.exit

KeccakP1600_ExtractBytesInLane.exit:              ; preds = %KeccakP1600_ExtractLanes.exit, %48
  %53 = phi i32 [ %50, %48 ], [ %44, %KeccakP1600_ExtractLanes.exit ]
  %54 = phi ptr [ %51, %48 ], [ %43, %KeccakP1600_ExtractLanes.exit ]
  %.0.i = phi i64 [ %52, %48 ], [ %47, %KeccakP1600_ExtractLanes.exit ]
  call void @llvm.lifetime.start.p0(i64 8, ptr nonnull %.sroa.0)
  store i64 %.0.i, ptr %.sroa.0, align 8, !tbaa !4
  %55 = zext nneg i32 %53 to i64
  call void @llvm.memcpy.p0.p0.i64(ptr align 1 %54, ptr nonnull align 8 %.sroa.0, i64 %55, i1 false)
  call void @llvm.lifetime.end.p0(i64 8, ptr nonnull %.sroa.0)
  br label %.loopexit

56:                                               ; preds = %4
  %.not35 = icmp eq i32 %3, 0
  br i1 %.not35, label %.loopexit, label %.lr.ph.preheader

.lr.ph.preheader:                                 ; preds = %56
  %57 = and i32 %2, 7
  %58 = lshr i32 %2, 3
  br label %.lr.ph

.lr.ph:                                           ; preds = %.lr.ph.preheader, %KeccakP1600_ExtractBytesInLane.exit34
  %.02739 = phi ptr [ %70, %KeccakP1600_ExtractBytesInLane.exit34 ], [ %1, %.lr.ph.preheader ]
  %.02838 = phi i32 [ 0, %KeccakP1600_ExtractBytesInLane.exit34 ], [ %57, %.lr.ph.preheader ]
  %.02937 = phi i32 [ %69, %KeccakP1600_ExtractBytesInLane.exit34 ], [ %58, %.lr.ph.preheader ]
  %.03036 = phi i32 [ %68, %KeccakP1600_ExtractBytesInLane.exit34 ], [ %3, %.lr.ph.preheader ]
  %59 = sub nuw nsw i32 8, %.02838
  %spec.select = tail call i32 @llvm.umin.i32(i32 %59, i32 %.03036)
  %60 = zext i32 %.02937 to i64
  %61 = getelementptr inbounds nuw i64, ptr %0, i64 %60
  %62 = load i64, ptr %61, align 8, !tbaa !4
  switch i32 %.02937, label %KeccakP1600_ExtractBytesInLane.exit34 [
    i32 20, label %63
    i32 17, label %63
    i32 12, label %63
    i32 8, label %63
    i32 2, label %63
    i32 1, label %63
  ]

63:                                               ; preds = %.lr.ph, %.lr.ph, %.lr.ph, %.lr.ph, %.lr.ph, %.lr.ph
  %64 = xor i64 %62, -1
  br label %KeccakP1600_ExtractBytesInLane.exit34

KeccakP1600_ExtractBytesInLane.exit34:            ; preds = %.lr.ph, %63
  %.0.i33 = phi i64 [ %64, %63 ], [ %62, %.lr.ph ]
  call void @llvm.lifetime.start.p0(i64 8, ptr nonnull %5) #8
  store i64 %.0.i33, ptr %5, align 8, !tbaa !4
  %65 = zext nneg i32 %.02838 to i64
  %66 = getelementptr inbounds nuw i8, ptr %5, i64 %65
  %67 = zext nneg i32 %spec.select to i64
  call void @llvm.memcpy.p0.p0.i64(ptr noundef nonnull align 1 dereferenceable(1) %.02739, ptr noundef nonnull align 1 dereferenceable(1) %66, i64 %67, i1 false)
  call void @llvm.lifetime.end.p0(i64 8, ptr nonnull %5) #8
  %68 = sub i32 %.03036, %spec.select
  %69 = add i32 %.02937, 1
  %70 = getelementptr inbounds nuw i8, ptr %.02739, i64 %67
  %.not = icmp eq i32 %68, 0
  br i1 %.not, label %.loopexit, label %.lr.ph

.loopexit:                                        ; preds = %KeccakP1600_ExtractBytesInLane.exit34, %56, %KeccakP1600_ExtractBytesInLane.exit
  ret void
}